cnumpy.core.multiarray
_reconstruct
p0
(cnumpy
ndarray
p1
(I0
tp2
S'b'
p3
tp4
Rp5
(I1
(I3
tp6
cnumpy
dtype
p7
(S'f8'
p8
I0
I1
tp9
Rp10
(I3
S'<'
p11
NNNI-1
I-1
I0
tp12
bI00
S'H\xe4A\x82\x80\x8e\xe7?\xcf?\x89\xf1\r\xb0\xca\xbfj\xcd\x7f(\x93t\xf3\xbf'
p13
tp14
b.